target datalayout = "e-m:e-p270:32:32-p271:32:32-p272:64:64-i64:64-i128:128-f80:128-n8:16:32:64-S128"
target triple = "x86_64-pc-linux-gnu"

%struct._zval_struct = type { %union._zend_value, %union.anon, %union.anon.3 }
%union._zend_value = type { i64 }
%union.anon = type { i32 }
%union.anon.3 = type { i32 }
%struct._zend_op_array = type { i8, [3 x i8], i32, ptr, ptr, ptr, i32, i32, ptr, ptr, ptr, ptr, i32, ptr, i32, i32, i32, ptr, ptr, ptr, ptr, ptr, i32, i32, ptr, ptr, ptr, i32, i32, i32, i32, ptr, ptr, [6 x ptr] }
%struct._zend_op = type { ptr, %union._znode_op, %union._znode_op, %union._znode_op, i32, i32, i8, i8, i8, i8 }
%union._znode_op = type { i32 }
%struct._zend_refcounted_h = type { i32, %union.anon.4 }
%union.anon.4 = type { i32 }
%struct.anon.1 = type { i8, i8, %union.anon.2 }
%union.anon.2 = type { i16 }
%struct._zend_refcounted = type { %struct._zend_refcounted_h }

; Function Attrs: alwaysinline nounwind uwtable
define internal i32 @zend_gc_delref(ptr noundef %0) #1 {
  %2 = alloca ptr, align 8
  store ptr %0, ptr %2, align 8, !tbaa !35
  %3 = load ptr, ptr %2, align 8, !tbaa !35
  %4 = getelementptr inbounds nuw %struct._zend_refcounted_h, ptr %3, i32 0, i32 0
  %5 = load i32, ptr %4, align 4, !tbaa !37
  %6 = icmp ugt i32 %5, 0
  call void @llvm.assume(i1 %6)
  br label %7

7:                                                ; preds = %1
  br label %8

8:                                                ; preds = %7
  %9 = load ptr, ptr %2, align 8, !tbaa !35
  %10 = getelementptr inbounds nuw %struct._zend_refcounted_h, ptr %9, i32 0, i32 0
  %11 = load i32, ptr %10, align 4, !tbaa !37
  %12 = add i32 %11, -1
  store i32 %12, ptr %10, align 4, !tbaa !37
  ret i32 %12
}

; Function Attrs: alwaysinline nounwind uwtable
define internal i32 @zval_delref_p(ptr noundef %0) #1 {
  %2 = alloca ptr, align 8
  store ptr %0, ptr %2, align 8, !tbaa !9
  %3 = load ptr, ptr %2, align 8, !tbaa !9
  %4 = getelementptr inbounds nuw %struct._zval_struct, ptr %3, i32 0, i32 1
  %5 = getelementptr inbounds nuw %struct.anon.1, ptr %4, i32 0, i32 1
  %6 = load i8, ptr %5, align 1, !tbaa !17
  %7 = zext i8 %6 to i32
  %8 = icmp ne i32 %7, 0
  call void @llvm.assume(i1 %8)
  %9 = load ptr, ptr %2, align 8, !tbaa !9
  %10 = getelementptr inbounds nuw %struct._zval_struct, ptr %9, i32 0, i32 0
  %11 = load ptr, ptr %10, align 8, !tbaa !17
  %12 = getelementptr inbounds nuw %struct._zend_refcounted, ptr %11, i32 0, i32 0
  %13 = call i32 @zend_gc_delref(ptr noundef %12)
  ret i32 %13
}

; Function Attrs: alwaysinline nounwind uwtable
define internal void @zval_ptr_dtor_nogc(ptr noundef %0) #1 {
  %2 = alloca ptr, align 8
  store ptr %0, ptr %2, align 8, !tbaa !9
  %3 = load ptr, ptr %2, align 8, !tbaa !9
  %4 = getelementptr inbounds nuw %struct._zval_struct, ptr %3, i32 0, i32 1
  %5 = getelementptr inbounds nuw %struct.anon.1, ptr %4, i32 0, i32 1
  %6 = load i8, ptr %5, align 1, !tbaa !17
  %7 = zext i8 %6 to i32
  %8 = icmp ne i32 %7, 0
  br i1 %8, label %9, label %17

9:                                                ; preds = %1
  %10 = load ptr, ptr %2, align 8, !tbaa !9
  %11 = call i32 @zval_delref_p(ptr noundef %10)
  %12 = icmp ne i32 %11, 0
  br i1 %12, label %17, label %13

13:                                               ; preds = %9
  %14 = load ptr, ptr %2, align 8, !tbaa !9
  %15 = getelementptr inbounds nuw %struct._zval_struct, ptr %14, i32 0, i32 0
  %16 = load ptr, ptr %15, align 8, !tbaa !17
  call void @rc_dtor_func(ptr noundef %16)
  br label %17

17:                                               ; preds = %13, %9, %1
  ret void
}

; Function Attrs: nounwind uwtable
define hidden void @zend_optimizer_convert_to_free_op1(ptr noundef %0, ptr noundef %1) #0 {
  %3 = alloca ptr, align 8
  %4 = alloca ptr, align 8
  store ptr %0, ptr %3, align 8, !tbaa !98
  store ptr %1, ptr %4, align 8, !tbaa !100
  %5 = load ptr, ptr %4, align 8, !tbaa !100
  %6 = getelementptr inbounds nuw %struct._zend_op, ptr %5, i32 0, i32 7
  %7 = load i8, ptr %6, align 1, !tbaa !101
  %8 = zext i8 %7 to i32
  %9 = icmp eq i32 %8, 8
  br i1 %9, label %10, label %27

10:                                               ; preds = %2
  %11 = load ptr, ptr %4, align 8, !tbaa !100
  %12 = getelementptr inbounds nuw %struct._zend_op, ptr %11, i32 0, i32 6
  store i8 49, ptr %12, align 4, !tbaa !102
  br label %13

13:                                               ; preds = %10
  %14 = load ptr, ptr %4, align 8, !tbaa !100
  %15 = getelementptr inbounds nuw %struct._zend_op, ptr %14, i32 0, i32 8
  store i8 0, ptr %15, align 2, !tbaa !103
  %16 = load ptr, ptr %4, align 8, !tbaa !100
  %17 = getelementptr inbounds nuw %struct._zend_op, ptr %16, i32 0, i32 2
  store i32 -1, ptr %17, align 4, !tbaa !17
  br label %18

18:                                               ; preds = %13
  br label %19

19:                                               ; preds = %18
  %20 = load ptr, ptr %4, align 8, !tbaa !100
  %21 = getelementptr inbounds nuw %struct._zend_op, ptr %20, i32 0, i32 9
  store i8 0, ptr %21, align 1, !tbaa !104
  %22 = load ptr, ptr %4, align 8, !tbaa !100
  %23 = getelementptr inbounds nuw %struct._zend_op, ptr %22, i32 0, i32 3
  store i32 -1, ptr %23, align 8, !tbaa !17
  br label %24

24:                                               ; preds = %19
  %25 = load ptr, ptr %4, align 8, !tbaa !100
  %26 = getelementptr inbounds nuw %struct._zend_op, ptr %25, i32 0, i32 4
  store i32 0, ptr %26, align 4, !tbaa !105
  br label %101

27:                                               ; preds = %2
  %28 = load ptr, ptr %4, align 8, !tbaa !100
  %29 = getelementptr inbounds nuw %struct._zend_op, ptr %28, i32 0, i32 7
  %30 = load i8, ptr %29, align 1, !tbaa !101
  %31 = zext i8 %30 to i32
  %32 = and i32 %31, 6
  %33 = icmp ne i32 %32, 0
  br i1 %33, label %34, label %51

34:                                               ; preds = %27
  %35 = load ptr, ptr %4, align 8, !tbaa !100
  %36 = getelementptr inbounds nuw %struct._zend_op, ptr %35, i32 0, i32 6
  store i8 70, ptr %36, align 4, !tbaa !102
  br label %37

37:                                               ; preds = %34
  %38 = load ptr, ptr %4, align 8, !tbaa !100
  %39 = getelementptr inbounds nuw %struct._zend_op, ptr %38, i32 0, i32 8
  store i8 0, ptr %39, align 2, !tbaa !103
  %40 = load ptr, ptr %4, align 8, !tbaa !100
  %41 = getelementptr inbounds nuw %struct._zend_op, ptr %40, i32 0, i32 2
  store i32 -1, ptr %41, align 4, !tbaa !17
  br label %42

42:                                               ; preds = %37
  br label %43

43:                                               ; preds = %42
  %44 = load ptr, ptr %4, align 8, !tbaa !100
  %45 = getelementptr inbounds nuw %struct._zend_op, ptr %44, i32 0, i32 9
  store i8 0, ptr %45, align 1, !tbaa !104
  %46 = load ptr, ptr %4, align 8, !tbaa !100
  %47 = getelementptr inbounds nuw %struct._zend_op, ptr %46, i32 0, i32 3
  store i32 -1, ptr %47, align 8, !tbaa !17
  br label %48

48:                                               ; preds = %43
  %49 = load ptr, ptr %4, align 8, !tbaa !100
  %50 = getelementptr inbounds nuw %struct._zend_op, ptr %49, i32 0, i32 4
  store i32 0, ptr %50, align 4, !tbaa !105
  br label %100

51:                                               ; preds = %27
  %52 = load ptr, ptr %4, align 8, !tbaa !100
  %53 = getelementptr inbounds nuw %struct._zend_op, ptr %52, i32 0, i32 7
  %54 = load i8, ptr %53, align 1, !tbaa !101
  %55 = zext i8 %54 to i32
  %56 = icmp eq i32 %55, 1
  call void @llvm.assume(i1 %56)
  br label %57

57:                                               ; preds = %51
  %58 = load ptr, ptr %3, align 8, !tbaa !98
  %59 = getelementptr inbounds nuw %struct._zend_op_array, ptr %58, i32 0, i32 31
  %60 = load ptr, ptr %59, align 8, !tbaa !106
  %61 = load ptr, ptr %4, align 8, !tbaa !100
  %62 = getelementptr inbounds nuw %struct._zend_op, ptr %61, i32 0, i32 1
  %63 = load i32, ptr %62, align 8, !tbaa !17
  %64 = zext i32 %63 to i64
  %65 = getelementptr inbounds nuw %struct._zval_struct, ptr %60, i64 %64
  call void @zval_ptr_dtor_nogc(ptr noundef %65)
  br label %66

66:                                               ; preds = %57
  %67 = load ptr, ptr %3, align 8, !tbaa !98
  %68 = getelementptr inbounds nuw %struct._zend_op_array, ptr %67, i32 0, i32 31
  %69 = load ptr, ptr %68, align 8, !tbaa !106
  %70 = load ptr, ptr %4, align 8, !tbaa !100
  %71 = getelementptr inbounds nuw %struct._zend_op, ptr %70, i32 0, i32 1
  %72 = load i32, ptr %71, align 8, !tbaa !17
  %73 = zext i32 %72 to i64
  %74 = getelementptr inbounds nuw %struct._zval_struct, ptr %69, i64 %73
  %75 = getelementptr inbounds nuw %struct._zval_struct, ptr %74, i32 0, i32 1
  store i32 1, ptr %75, align 8, !tbaa !17
  br label %76

76:                                               ; preds = %66
  br label %77

77:                                               ; preds = %76
  br label %78

78:                                               ; preds = %77
  %79 = load ptr, ptr %4, align 8, !tbaa !100
  %80 = getelementptr inbounds nuw %struct._zend_op, ptr %79, i32 0, i32 6
  store i8 0, ptr %80, align 4, !tbaa !102
  br label %81

81:                                               ; preds = %78
  %82 = load ptr, ptr %4, align 8, !tbaa !100
  %83 = getelementptr inbounds nuw %struct._zend_op, ptr %82, i32 0, i32 7
  store i8 0, ptr %83, align 1, !tbaa !101
  %84 = load ptr, ptr %4, align 8, !tbaa !100
  %85 = getelementptr inbounds nuw %struct._zend_op, ptr %84, i32 0, i32 1
  store i32 -1, ptr %85, align 8, !tbaa !17
  br label %86

86:                                               ; preds = %81
  br label %87

87:                                               ; preds = %86
  %88 = load ptr, ptr %4, align 8, !tbaa !100
  %89 = getelementptr inbounds nuw %struct._zend_op, ptr %88, i32 0, i32 8
  store i8 0, ptr %89, align 2, !tbaa !103
  %90 = load ptr, ptr %4, align 8, !tbaa !100
  %91 = getelementptr inbounds nuw %struct._zend_op, ptr %90, i32 0, i32 2
  store i32 -1, ptr %91, align 4, !tbaa !17
  br label %92

92:                                               ; preds = %87
  br label %93

93:                                               ; preds = %92
  %94 = load ptr, ptr %4, align 8, !tbaa !100
  %95 = getelementptr inbounds nuw %struct._zend_op, ptr %94, i32 0, i32 9
  store i8 0, ptr %95, align 1, !tbaa !104
  %96 = load ptr, ptr %4, align 8, !tbaa !100
  %97 = getelementptr inbounds nuw %struct._zend_op, ptr %96, i32 0, i32 3
  store i32 -1, ptr %97, align 8, !tbaa !17
  br label %98

98:                                               ; preds = %93
  br label %99

99:                                               ; preds = %98
  br label %100

100:                                              ; preds = %99, %48
  br label %101

101:                                              ; preds = %100, %24
  ret void
}