; Function Attrs: nounwind uwtable
define hidden void @zend_optimizer_convert_to_free_op1(ptr noundef readonly captures(none) %0, ptr noundef captures(none) initializes((12, 20), (28, 29), (30, 32)) %1) local_unnamed_addr #0 {
  %3 = getelementptr inbounds nuw i8, ptr %1, i64 29
  %4 = load i8, ptr %3, align 1, !tbaa !82
  %5 = icmp eq i8 %4, 8
  br i1 %5, label %6, label %13

6:                                                ; preds = %2
  %7 = getelementptr inbounds nuw i8, ptr %1, i64 28
  store i8 49, ptr %7, align 4, !tbaa !83
  %8 = getelementptr inbounds nuw i8, ptr %1, i64 30
  store i8 0, ptr %8, align 2, !tbaa !84
  %9 = getelementptr inbounds nuw i8, ptr %1, i64 12
  store i32 -1, ptr %9, align 4, !tbaa !20
  %10 = getelementptr inbounds nuw i8, ptr %1, i64 31
  store i8 0, ptr %10, align 1, !tbaa !85
  %11 = getelementptr inbounds nuw i8, ptr %1, i64 16
  store i32 -1, ptr %11, align 8, !tbaa !20
  %12 = getelementptr inbounds nuw i8, ptr %1, i64 20
  store i32 0, ptr %12, align 4, !tbaa !86
  br label %48

13:                                               ; preds = %2
  %14 = and i8 %4, 6
  %.not = icmp eq i8 %14, 0
  br i1 %.not, label %22, label %15

15:                                               ; preds = %13
  %16 = getelementptr inbounds nuw i8, ptr %1, i64 28
  store i8 70, ptr %16, align 4, !tbaa !83
  %17 = getelementptr inbounds nuw i8, ptr %1, i64 30
  store i8 0, ptr %17, align 2, !tbaa !84
  %18 = getelementptr inbounds nuw i8, ptr %1, i64 12
  store i32 -1, ptr %18, align 4, !tbaa !20
  %19 = getelementptr inbounds nuw i8, ptr %1, i64 31
  store i8 0, ptr %19, align 1, !tbaa !85
  %20 = getelementptr inbounds nuw i8, ptr %1, i64 16
  store i32 -1, ptr %20, align 8, !tbaa !20
  %21 = getelementptr inbounds nuw i8, ptr %1, i64 20
  store i32 0, ptr %21, align 4, !tbaa !86
  br label %48

22:                                               ; preds = %13
  %23 = icmp eq i8 %4, 1
  tail call void @llvm.assume(i1 %23)
  %24 = getelementptr inbounds nuw i8, ptr %0, i64 192
  %25 = load ptr, ptr %24, align 8, !tbaa !87
  %26 = getelementptr inbounds nuw i8, ptr %1, i64 8
  %27 = load i32, ptr %26, align 8, !tbaa !20
  %28 = zext i32 %27 to i64
  %29 = getelementptr inbounds nuw %struct._zval_struct, ptr %25, i64 %28
  %30 = getelementptr inbounds nuw i8, ptr %29, i64 9
  %31 = load i8, ptr %30, align 1, !tbaa !20
  %.not.i = icmp eq i8 %31, 0
  br i1 %.not.i, label %zval_ptr_dtor_nogc.exit, label %32

32:                                               ; preds = %22
  %33 = load ptr, ptr %29, align 8, !tbaa !20
  %34 = load i32, ptr %33, align 4, !tbaa !21
  %35 = icmp ne i32 %34, 0
  tail call void @llvm.assume(i1 %35)
  %36 = add i32 %34, -1
  store i32 %36, ptr %33, align 4, !tbaa !21
  %.not3.i = icmp eq i32 %36, 0
  br i1 %.not3.i, label %37, label %zval_ptr_dtor_nogc.exit

37:                                               ; preds = %32
  %38 = load ptr, ptr %29, align 8, !tbaa !20
  tail call void @rc_dtor_func(ptr noundef %38) #20
  %.pre = load ptr, ptr %24, align 8, !tbaa !87
  br label %zval_ptr_dtor_nogc.exit

zval_ptr_dtor_nogc.exit:                          ; preds = %22, %32, %37
  %39 = phi ptr [ %25, %22 ], [ %25, %32 ], [ %.pre, %37 ]
  %40 = load i32, ptr %26, align 8, !tbaa !20
  %41 = zext i32 %40 to i64
  %42 = getelementptr inbounds nuw %struct._zval_struct, ptr %39, i64 %41, i32 1
  store i32 1, ptr %42, align 8, !tbaa !20
  %43 = getelementptr inbounds nuw i8, ptr %1, i64 28
  store i8 0, ptr %43, align 4, !tbaa !83
  store i8 0, ptr %3, align 1, !tbaa !82
  store i32 -1, ptr %26, align 8, !tbaa !20
  %44 = getelementptr inbounds nuw i8, ptr %1, i64 30
  store i8 0, ptr %44, align 2, !tbaa !84
  %45 = getelementptr inbounds nuw i8, ptr %1, i64 12
  store i32 -1, ptr %45, align 4, !tbaa !20
  %46 = getelementptr inbounds nuw i8, ptr %1, i64 31
  store i8 0, ptr %46, align 1, !tbaa !85
  %47 = getelementptr inbounds nuw i8, ptr %1, i64 16
  store i32 -1, ptr %47, align 8, !tbaa !20
  br label %48

48:                                               ; preds = %15, %zval_ptr_dtor_nogc.exit, %6
  ret void
}